target datalayout = "e-m:e-p270:32:32-p271:32:32-p272:64:64-i64:64-i128:128-f80:128-n8:16:32:64-S128"
target triple = "x86_64-pc-linux-gnu"

%class.V3ErrorCode = type { i8 }

@.str.15 = private unnamed_addr constant [114 x i8] c"generated/home/dtcxzyw/WorkSpace/Projects/compilers/llvm-opt-benchmark/bench/verilator/verilator/src/V3Number.cpp\00", align 1
@.str.51 = private unnamed_addr constant [50 x i8] c"Number operation called with same source and dest\00", align 1

; Function Attrs: mustprogress nounwind uwtable
define linkonce_odr dso_local void @_ZN11V3ErrorCodeC2ENS_2enE(ptr noundef nonnull align 1 dereferenceable(1) %0, i8 noundef zeroext %1) unnamed_addr #7 comdat align 2 {
  %3 = alloca ptr, align 8
  %4 = alloca i8, align 1
  store ptr %0, ptr %3, align 8, !tbaa !123
  store i8 %1, ptr %4, align 1, !tbaa !125
  %5 = load ptr, ptr %3, align 8
  %6 = getelementptr inbounds nuw %class.V3ErrorCode, ptr %5, i32 0, i32 0
  %7 = load i8, ptr %4, align 1, !tbaa !125
  store i8 %7, ptr %6, align 1, !tbaa !127
  ret void
}

; Function Attrs: mustprogress uwtable
define dso_local noundef nonnull align 8 dereferenceable(56) ptr @_ZN8V3Number8opCaseEqERKS_S1_(ptr noundef nonnull align 8 dereferenceable(56) %0, ptr noundef nonnull align 8 dereferenceable(56) %1, ptr noundef nonnull align 8 dereferenceable(56) %2) #4 align 2 {
  %4 = alloca ptr, align 8
  %5 = alloca ptr, align 8
  %6 = alloca ptr, align 8
  %7 = alloca %class.V3ErrorCode, align 1
  store ptr %0, ptr %4, align 8, !tbaa !4
  store ptr %1, ptr %5, align 8, !tbaa !4
  store ptr %2, ptr %6, align 8, !tbaa !4
  %8 = load ptr, ptr %4, align 8
  br label %9

9:                                                ; preds = %3
  %10 = load ptr, ptr %5, align 8, !tbaa !4
  %11 = icmp ne ptr %8, %10
  br i1 %11, label %12, label %15

12:                                               ; preds = %9
  %13 = load ptr, ptr %6, align 8, !tbaa !4
  %14 = icmp ne ptr %8, %13
  br label %15

15:                                               ; preds = %12, %9
  %16 = phi i1 [ false, %9 ], [ %14, %12 ]
  %17 = xor i1 %16, true
  %18 = xor i1 %17, true
  %19 = xor i1 %18, true
  %20 = zext i1 %19 to i64
  %21 = call i64 @llvm.expect.i64(i64 %20, i64 0)
  %22 = icmp ne i64 %21, 0
  br i1 %22, label %23, label %29

23:                                               ; preds = %15
  call void @_ZN11V3ErrorCodeC2ENS_2enE(ptr noundef nonnull align 1 dereferenceable(1) %7, i8 noundef zeroext 4)
  %24 = getelementptr inbounds nuw %class.V3ErrorCode, ptr %7, i32 0, i32 0
  %25 = load i8, ptr %24, align 1
  %26 = call noundef nonnull align 8 dereferenceable(112) ptr @_ZN7V3Error19v3errorPrepFileLineB5cxx11E11V3ErrorCodePKci(i8 %25, ptr noundef @.str.15, i32 noundef 1694)
  %27 = call noundef nonnull align 8 dereferenceable(112) ptr @_ZN7V3Error10v3errorStrB5cxx11Ev()
  %28 = call noundef nonnull align 8 dereferenceable(8) ptr @_ZStlsISt11char_traitsIcEERSt13basic_ostreamIcT_ES5_PKc(ptr noundef nonnull align 8 dereferenceable(8) %27, ptr noundef @.str.51)
  call void @_ZNK8V3Number15v3errorEndFatalERKNSt7__cxx1119basic_ostringstreamIcSt11char_traitsIcESaIcEEE(ptr noundef nonnull align 8 dereferenceable(56) %8, ptr noundef nonnull align 8 dereferenceable(112) %28) #25
  unreachable

29:                                               ; preds = %15
  br label %30

30:                                               ; preds = %29
  %31 = load ptr, ptr %5, align 8, !tbaa !4
  %32 = load ptr, ptr %6, align 8, !tbaa !4
  %33 = call noundef zeroext i1 @_ZNK8V3Number8isCaseEqERKS_(ptr noundef nonnull align 8 dereferenceable(56) %31, ptr noundef nonnull align 8 dereferenceable(56) %32)
  %34 = select i1 %33, i32 1, i32 0
  %35 = trunc i32 %34 to i8
  %36 = call noundef nonnull align 8 dereferenceable(56) ptr @_ZN8V3Number13setSingleBitsEc(ptr noundef nonnull align 8 dereferenceable(56) %8, i8 noundef signext %35)
  ret ptr %36
}